; Function Attrs: mustprogress nounwind uwtable
define hidden void @_ZN4LIEF5MachO16destroy_commandsEP14Macho_Binary_t(ptr noundef readonly captures(none) %0) local_unnamed_addr #2 {
  %2 = getelementptr inbounds nuw i8, ptr %0, i64 48
  %3 = load ptr, ptr %2, align 8, !tbaa !13
  %4 = load ptr, ptr %3, align 8, !tbaa !25
  %.not9 = icmp eq ptr %4, null
  br i1 %.not9, label %._crit_edge, label %.lr.ph

._crit_edge.loopexit:                             ; preds = %.lr.ph
  %.pre = load ptr, ptr %2, align 8, !tbaa !13
  br label %._crit_edge

._crit_edge:                                      ; preds = %._crit_edge.loopexit, %1
  %5 = phi ptr [ %.pre, %._crit_edge.loopexit ], [ %3, %1 ]
  tail call void @free(ptr noundef %5) #7
  ret void

.lr.ph:                                           ; preds = %1, %.lr.ph
  %6 = phi ptr [ %13, %.lr.ph ], [ %4, %1 ]
  %.010 = phi i64 [ %11, %.lr.ph ], [ 0, %1 ]
  %7 = getelementptr inbounds nuw ptr, ptr %3, i64 %.010
  %8 = getelementptr inbounds nuw i8, ptr %6, i64 8
  %9 = load ptr, ptr %8, align 8, !tbaa !45
  tail call void @free(ptr noundef %9) #7
  %10 = load ptr, ptr %7, align 8, !tbaa !25
  tail call void @free(ptr noundef %10) #7
  %11 = add i64 %.010, 1
  %12 = getelementptr inbounds nuw ptr, ptr %3, i64 %11
  %13 = load ptr, ptr %12, align 8, !tbaa !25
  %.not = icmp eq ptr %13, null
  br i1 %.not, label %._crit_edge.loopexit, label %.lr.ph, !llvm.loop !50
}